target datalayout = "e-m:e-p270:32:32-p271:32:32-p272:64:64-i64:64-i128:128-f80:128-n8:16:32:64-S128"
target triple = "x86_64-pc-linux-gnu"

%struct.ident_t = type { i32, i32, i32, i32, ptr }
%"class.ncnn::Mat" = type { ptr, ptr, i64, i32, ptr, i32, i32, i32, i32, i32, i64 }
%"class.ncnn::ReLU" = type <{ %"class.ncnn::Layer", float, [4 x i8] }>
%"class.ncnn::Layer" = type { ptr, i8, i8, i8, i8, i8, i8, i8, i8, i8, i8, i8, i8, i8, i8, i8, i8, i8, i8, i8, i8, i32, ptr, i32, %"class.std::__cxx11::basic_string", %"class.std::__cxx11::basic_string", %"class.std::vector", %"class.std::vector", %"class.std::vector.3", %"class.std::vector.3" }
%"class.std::__cxx11::basic_string" = type { %"struct.std::__cxx11::basic_string<char>::_Alloc_hider", i64, %union.anon }
%"struct.std::__cxx11::basic_string<char>::_Alloc_hider" = type { ptr }
%union.anon = type { i64, [8 x i8] }
%"class.std::vector" = type { %"struct.std::_Vector_base" }
%"struct.std::_Vector_base" = type { %"struct.std::_Vector_base<int, std::allocator<int>>::_Vector_impl" }
%"struct.std::_Vector_base<int, std::allocator<int>>::_Vector_impl" = type { %"struct.std::_Vector_base<int, std::allocator<int>>::_Vector_impl_data" }
%"struct.std::_Vector_base<int, std::allocator<int>>::_Vector_impl_data" = type { ptr, ptr, ptr }
%"class.std::vector.3" = type { %"struct.std::_Vector_base.4" }
%"struct.std::_Vector_base.4" = type { %"struct.std::_Vector_base<ncnn::Mat, std::allocator<ncnn::Mat>>::_Vector_impl" }
%"struct.std::_Vector_base<ncnn::Mat, std::allocator<ncnn::Mat>>::_Vector_impl" = type { %"struct.std::_Vector_base<ncnn::Mat, std::allocator<ncnn::Mat>>::_Vector_impl_data" }
%"struct.std::_Vector_base<ncnn::Mat, std::allocator<ncnn::Mat>>::_Vector_impl_data" = type { ptr, ptr, ptr }
%"class.ncnn::Option" = type { i8, i32, ptr, ptr, i32, i8, i8, i8, i8, i8, i8, i8, i8, i8, i8, i8, i8, i8, i8, i8, i8, i8, i8, i8, i8, i32, i8, i8, i8, i8, i8, i8, i8, i8, i8, i8, i8, i8 }

@2 = private unnamed_addr constant %struct.ident_t { i32 0, i32 2, i32 0, i32 22, ptr @0 }, align 8

; Function Attrs: mustprogress nounwind uwtable
define hidden noundef i32 @_ZNK4ncnn12ReLU_x86_fma20forward_inplace_int8ERNS_3MatERKNS_6OptionE(ptr noundef nonnull align 8 dereferenceable(212) %0, ptr noundef nonnull align 8 dereferenceable(72) %1, ptr noundef nonnull align 8 dereferenceable(64) %2) #6 align 2 {
  %4 = alloca i32, align 4
  %5 = alloca ptr, align 8
  %6 = alloca ptr, align 8
  %7 = alloca ptr, align 8
  %8 = alloca i32, align 4
  %9 = alloca i32, align 4
  %10 = alloca i32, align 4
  %11 = alloca i32, align 4
  %12 = alloca i32, align 4
  %13 = alloca i32, align 4
  %14 = alloca i32, align 4
  %15 = call i32 @__kmpc_global_thread_num(ptr @2)
  store ptr %0, ptr %5, align 8, !tbaa !4
  store ptr %1, ptr %6, align 8, !tbaa !9
  store ptr %2, ptr %7, align 8, !tbaa !11
  %16 = load ptr, ptr %5, align 8
  call void @llvm.lifetime.start.p0(i64 4, ptr %8) #8
  %17 = load ptr, ptr %6, align 8, !tbaa !9
  %18 = getelementptr inbounds nuw %"class.ncnn::Mat", ptr %17, i32 0, i32 6
  %19 = load i32, ptr %18, align 4, !tbaa !15
  store i32 %19, ptr %8, align 4, !tbaa !13
  call void @llvm.lifetime.start.p0(i64 4, ptr %9) #8
  %20 = load ptr, ptr %6, align 8, !tbaa !9
  %21 = getelementptr inbounds nuw %"class.ncnn::Mat", ptr %20, i32 0, i32 7
  %22 = load i32, ptr %21, align 8, !tbaa !20
  store i32 %22, ptr %9, align 4, !tbaa !13
  call void @llvm.lifetime.start.p0(i64 4, ptr %10) #8
  %23 = load ptr, ptr %6, align 8, !tbaa !9
  %24 = getelementptr inbounds nuw %"class.ncnn::Mat", ptr %23, i32 0, i32 8
  %25 = load i32, ptr %24, align 4, !tbaa !21
  store i32 %25, ptr %10, align 4, !tbaa !13
  call void @llvm.lifetime.start.p0(i64 4, ptr %11) #8
  %26 = load ptr, ptr %6, align 8, !tbaa !9
  %27 = getelementptr inbounds nuw %"class.ncnn::Mat", ptr %26, i32 0, i32 9
  %28 = load i32, ptr %27, align 8, !tbaa !22
  store i32 %28, ptr %11, align 4, !tbaa !13
  call void @llvm.lifetime.start.p0(i64 4, ptr %12) #8
  %29 = load i32, ptr %8, align 4, !tbaa !13
  %30 = load i32, ptr %9, align 4, !tbaa !13
  %31 = mul nsw i32 %29, %30
  %32 = load i32, ptr %10, align 4, !tbaa !13
  %33 = mul nsw i32 %31, %32
  store i32 %33, ptr %12, align 4, !tbaa !13
  call void @llvm.lifetime.start.p0(i64 4, ptr %13) #8
  %34 = load ptr, ptr %6, align 8, !tbaa !9
  %35 = getelementptr inbounds nuw %"class.ncnn::Mat", ptr %34, i32 0, i32 3
  %36 = load i32, ptr %35, align 8, !tbaa !23
  store i32 %36, ptr %13, align 4, !tbaa !13
  %37 = load i32, ptr %13, align 4, !tbaa !13
  %38 = icmp eq i32 %37, 8
  br i1 %38, label %39, label %50

39:                                               ; preds = %3
  %40 = getelementptr inbounds nuw %"class.ncnn::ReLU", ptr %16, i32 0, i32 1
  %41 = load float, ptr %40, align 8, !tbaa !24
  %42 = fcmp fast oeq float %41, 0.000000e+00
  br i1 %42, label %43, label %48

43:                                               ; preds = %39
  %44 = load ptr, ptr %7, align 8, !tbaa !11
  %45 = getelementptr inbounds nuw %"class.ncnn::Option", ptr %44, i32 0, i32 1
  %46 = load i32, ptr %45, align 4, !tbaa !40
  call void @__kmpc_push_num_threads(ptr @2, i32 %15, i32 %46)
  %47 = load ptr, ptr %6, align 8, !tbaa !9
  call void (ptr, i32, ptr, ...) @__kmpc_fork_call(ptr @2, i32 3, ptr @_ZNK4ncnn12ReLU_x86_fma20forward_inplace_int8ERNS_3MatERKNS_6OptionE.omp_outlined, ptr %11, ptr %47, ptr %12)
  br label %49

48:                                               ; preds = %39
  br label %49

49:                                               ; preds = %48, %43
  store i32 0, ptr %4, align 4
  store i32 1, ptr %14, align 4
  br label %61

50:                                               ; preds = %3
  %51 = getelementptr inbounds nuw %"class.ncnn::ReLU", ptr %16, i32 0, i32 1
  %52 = load float, ptr %51, align 8, !tbaa !24
  %53 = fcmp fast oeq float %52, 0.000000e+00
  br i1 %53, label %54, label %59

54:                                               ; preds = %50
  %55 = load ptr, ptr %7, align 8, !tbaa !11
  %56 = getelementptr inbounds nuw %"class.ncnn::Option", ptr %55, i32 0, i32 1
  %57 = load i32, ptr %56, align 4, !tbaa !40
  call void @__kmpc_push_num_threads(ptr @2, i32 %15, i32 %57)
  %58 = load ptr, ptr %6, align 8, !tbaa !9
  call void (ptr, i32, ptr, ...) @__kmpc_fork_call(ptr @2, i32 3, ptr @_ZNK4ncnn12ReLU_x86_fma20forward_inplace_int8ERNS_3MatERKNS_6OptionE.omp_outlined.2, ptr %11, ptr %58, ptr %12)
  br label %60

59:                                               ; preds = %50
  br label %60

60:                                               ; preds = %59, %54
  store i32 0, ptr %4, align 4
  store i32 1, ptr %14, align 4
  br label %61

61:                                               ; preds = %60, %49
  call void @llvm.lifetime.end.p0(i64 4, ptr %13) #8
  call void @llvm.lifetime.end.p0(i64 4, ptr %12) #8
  call void @llvm.lifetime.end.p0(i64 4, ptr %11) #8
  call void @llvm.lifetime.end.p0(i64 4, ptr %10) #8
  call void @llvm.lifetime.end.p0(i64 4, ptr %9) #8
  call void @llvm.lifetime.end.p0(i64 4, ptr %8) #8
  %62 = load i32, ptr %4, align 4
  ret i32 %62
}