; Function Attrs: mustprogress nounwind uwtable
define hidden noundef i32 @_ZNK4ncnn12ReLU_x86_fma20forward_inplace_int8ERNS_3MatERKNS_6OptionE(ptr noundef nonnull readonly align 8 captures(none) dereferenceable(212) %0, ptr noundef nonnull align 8 dereferenceable(72) %1, ptr noundef nonnull readonly align 8 captures(none) dereferenceable(64) %2) local_unnamed_addr #3 align 2 {
  %4 = alloca i32, align 4
  %5 = alloca i32, align 4
  %6 = tail call i32 @__kmpc_global_thread_num(ptr nonnull @2)
  %7 = getelementptr inbounds nuw i8, ptr %1, i64 44
  %8 = load i32, ptr %7, align 4, !tbaa !14
  %9 = getelementptr inbounds nuw i8, ptr %1, i64 48
  %10 = load i32, ptr %9, align 8, !tbaa !15
  %11 = getelementptr inbounds nuw i8, ptr %1, i64 52
  %12 = load i32, ptr %11, align 4, !tbaa !16
  call void @llvm.lifetime.start.p0(i64 4, ptr nonnull %4) #7
  %13 = getelementptr inbounds nuw i8, ptr %1, i64 56
  %14 = load i32, ptr %13, align 8, !tbaa !17
  store i32 %14, ptr %4, align 4, !tbaa !18
  call void @llvm.lifetime.start.p0(i64 4, ptr nonnull %5) #7
  %15 = mul nsw i32 %10, %8
  %16 = mul nsw i32 %15, %12
  store i32 %16, ptr %5, align 4, !tbaa !18
  %17 = getelementptr inbounds nuw i8, ptr %0, i64 208
  %18 = load float, ptr %17, align 8, !tbaa !19
  %19 = fcmp fast oeq float %18, 0.000000e+00
  br i1 %19, label %.sink.split, label %25

.sink.split:                                      ; preds = %3
  %20 = getelementptr inbounds nuw i8, ptr %1, i64 24
  %21 = load i32, ptr %20, align 8, !tbaa !4
  %22 = icmp eq i32 %21, 8
  %_ZNK4ncnn12ReLU_x86_fma20forward_inplace_int8ERNS_3MatERKNS_6OptionE.omp_outlined._ZNK4ncnn12ReLU_x86_fma20forward_inplace_int8ERNS_3MatERKNS_6OptionE.omp_outlined.2 = select i1 %22, ptr @_ZNK4ncnn12ReLU_x86_fma20forward_inplace_int8ERNS_3MatERKNS_6OptionE.omp_outlined, ptr @_ZNK4ncnn12ReLU_x86_fma20forward_inplace_int8ERNS_3MatERKNS_6OptionE.omp_outlined.2
  %23 = getelementptr inbounds nuw i8, ptr %2, i64 4
  %24 = load i32, ptr %23, align 4, !tbaa !36
  tail call void @__kmpc_push_num_threads(ptr nonnull @2, i32 %6, i32 %24)
  call void (ptr, i32, ptr, ...) @__kmpc_fork_call(ptr nonnull @2, i32 3, ptr nonnull %_ZNK4ncnn12ReLU_x86_fma20forward_inplace_int8ERNS_3MatERKNS_6OptionE.omp_outlined._ZNK4ncnn12ReLU_x86_fma20forward_inplace_int8ERNS_3MatERKNS_6OptionE.omp_outlined.2, ptr nonnull %4, ptr nonnull %1, ptr nonnull %5)
  br label %25

25:                                               ; preds = %3, %.sink.split
  call void @llvm.lifetime.end.p0(i64 4, ptr nonnull %5) #7
  call void @llvm.lifetime.end.p0(i64 4, ptr nonnull %4) #7
  ret i32 0
}